target datalayout = "e-m:e-p270:32:32-p271:32:32-p272:64:64-i64:64-i128:128-f80:128-n8:16:32:64-S128"
target triple = "x86_64-pc-linux-gnu"

%"class.gmx::MultiDimArray" = type { %"struct.std::array", %"class.gmx::basic_mdspan.2" }
%"struct.std::array" = type { [9 x float] }
%"class.gmx::basic_mdspan.2" = type { %"class.gmx::accessor_basic.3", %"class.gmx::layout_right::mapping", ptr }
%"class.gmx::accessor_basic.3" = type { i8 }
%"class.gmx::layout_right::mapping" = type { %"class.gmx::extents" }
%"class.gmx::extents" = type { %"struct.gmx::detail::extents_analyse" }
%"struct.gmx::detail::extents_analyse" = type { %"struct.gmx::detail::extents_analyse.0" }
%"struct.gmx::detail::extents_analyse.0" = type { %"struct.gmx::detail::extents_analyse.1" }
%"struct.gmx::detail::extents_analyse.1" = type { i8 }
%"class.gmx::basic_mdspan" = type { %"class.gmx::accessor_basic", %"class.gmx::layout_right::mapping", ptr }
%"class.gmx::accessor_basic" = type { i8 }

; Function Attrs: mustprogress nounwind uwtable
define linkonce_odr noundef i64 @_ZN3gmx6detail15extents_analyseILi0EJEE6extentEm(i64 noundef %0) #0 comdat align 2 {
  %2 = alloca i64, align 8
  store i64 %0, ptr %2, align 8
  ret i64 1
}

; Function Attrs: mustprogress nounwind uwtable
define linkonce_odr void @_ZN3gmx6detail15extents_analyseILi0EJEEC2Ev(ptr noundef nonnull align 1 dereferenceable(1) %0) unnamed_addr #0 comdat align 2 {
  %2 = alloca ptr, align 8
  store ptr %0, ptr %2, align 8
  ret void
}

; Function Attrs: mustprogress nounwind uwtable
define linkonce_odr noundef i64 @_ZNK3gmx6detail15extents_analyseILi1EJLl3EEE6extentEm(ptr noundef nonnull align 1 dereferenceable(1) %0, i64 noundef %1) #0 comdat align 2 {
  %3 = alloca ptr, align 8
  %4 = alloca i64, align 8
  store ptr %0, ptr %3, align 8
  store i64 %1, ptr %4, align 8
  %5 = load i64, ptr %4, align 8
  %6 = icmp eq i64 %5, 1
  br i1 %6, label %7, label %8

7:                                                ; preds = %2
  br label %11

8:                                                ; preds = %2
  %9 = load i64, ptr %4, align 8
  %10 = call noundef i64 @_ZN3gmx6detail15extents_analyseILi0EJEE6extentEm(i64 noundef %9) #6
  br label %11

11:                                               ; preds = %8, %7
  %12 = phi i64 [ 3, %7 ], [ %10, %8 ]
  ret i64 %12
}

; Function Attrs: mustprogress uwtable
define linkonce_odr void @_ZN3gmx6detail15extents_analyseILi1EJLl3EEEC2Ev(ptr noundef nonnull align 1 dereferenceable(1) %0) unnamed_addr #4 comdat align 2 {
  %2 = alloca ptr, align 8
  store ptr %0, ptr %2, align 8
  %3 = load ptr, ptr %2, align 8
  %4 = getelementptr inbounds %"struct.gmx::detail::extents_analyse.0", ptr %3, i32 0, i32 0
  call void @_ZN3gmx6detail15extents_analyseILi0EJEEC2Ev(ptr noundef nonnull align 1 dereferenceable(1) %4)
  ret void
}

; Function Attrs: mustprogress nounwind uwtable
define linkonce_odr noundef i64 @_ZN3gmx12layout_right7mappingINS_7extentsIJLl3ELl3EEEEE6offsetEml(i64 noundef %0, i64 noundef %1) #0 comdat align 2 {
  %3 = alloca i64, align 8
  %4 = alloca i64, align 8
  store i64 %0, ptr %3, align 8
  store i64 %1, ptr %4, align 8
  %5 = load i64, ptr %4, align 8
  ret i64 %5
}

; Function Attrs: mustprogress nounwind uwtable
define linkonce_odr noundef i64 @_ZNK3gmx6detail15extents_analyseILi2EJLl3ELl3EEE6extentEm(ptr noundef nonnull align 1 dereferenceable(1) %0, i64 noundef %1) #0 comdat align 2 {
  %3 = alloca ptr, align 8
  %4 = alloca i64, align 8
  store ptr %0, ptr %3, align 8
  store i64 %1, ptr %4, align 8
  %5 = load ptr, ptr %3, align 8
  %6 = load i64, ptr %4, align 8
  %7 = icmp eq i64 %6, 2
  br i1 %7, label %8, label %9

8:                                                ; preds = %2
  br label %13

9:                                                ; preds = %2
  %10 = getelementptr inbounds %"struct.gmx::detail::extents_analyse", ptr %5, i32 0, i32 0
  %11 = load i64, ptr %4, align 8
  %12 = call noundef i64 @_ZNK3gmx6detail15extents_analyseILi1EJLl3EEE6extentEm(ptr noundef nonnull align 1 dereferenceable(1) %10, i64 noundef %11) #6
  br label %13

13:                                               ; preds = %9, %8
  %14 = phi i64 [ 3, %8 ], [ %12, %9 ]
  ret i64 %14
}

; Function Attrs: mustprogress nounwind uwtable
define linkonce_odr noundef i64 @_ZN3gmx7extentsIJLl3ELl3EEE4rankEv() #0 comdat align 2 {
  ret i64 2
}

; Function Attrs: noreturn nounwind uwtable
define linkonce_odr hidden void @__clang_call_terminate(ptr noundef %0) #1 comdat {
  %2 = call ptr @__cxa_begin_catch(ptr %0) #6
  call void @_ZSt9terminatev() #8
  unreachable
}

; Function Attrs: mustprogress uwtable
define linkonce_odr void @_ZN3gmx6detail15extents_analyseILi2EJLl3ELl3EEEC2Ev(ptr noundef nonnull align 1 dereferenceable(1) %0) unnamed_addr #4 comdat align 2 {
  %2 = alloca ptr, align 8
  store ptr %0, ptr %2, align 8
  %3 = load ptr, ptr %2, align 8
  %4 = getelementptr inbounds %"struct.gmx::detail::extents_analyse", ptr %3, i32 0, i32 0
  call void @_ZN3gmx6detail15extents_analyseILi1EJLl3EEEC2Ev(ptr noundef nonnull align 1 dereferenceable(1) %4)
  ret void
}

; Function Attrs: mustprogress nounwind uwtable
define linkonce_odr noundef i64 @_ZNK3gmx12layout_right7mappingINS_7extentsIJLl3ELl3EEEEE6offsetIJEEElmllDpT_(ptr noundef nonnull align 1 dereferenceable(1) %0, i64 noundef %1, i64 noundef %2, i64 noundef %3) #0 comdat align 2 personality ptr @__gxx_personality_v0 {
  %5 = alloca ptr, align 8
  %6 = alloca i64, align 8
  %7 = alloca i64, align 8
  %8 = alloca i64, align 8
  store ptr %0, ptr %5, align 8
  store i64 %1, ptr %6, align 8
  store i64 %2, ptr %7, align 8
  store i64 %3, ptr %8, align 8
  %9 = load ptr, ptr %5, align 8
  %10 = load i64, ptr %6, align 8
  %11 = add i64 %10, 1
  %12 = load i64, ptr %7, align 8
  %13 = getelementptr inbounds %"class.gmx::layout_right::mapping", ptr %9, i32 0, i32 0
  %14 = load i64, ptr %6, align 8
  %15 = call noundef i64 @_ZNK3gmx7extentsIJLl3ELl3EEE6extentEm(ptr noundef nonnull align 1 dereferenceable(1) %13, i64 noundef %14) #6
  %16 = mul nsw i64 %12, %15
  %17 = load i64, ptr %8, align 8
  %18 = add nsw i64 %16, %17
  %19 = invoke noundef i64 @_ZN3gmx12layout_right7mappingINS_7extentsIJLl3ELl3EEEEE6offsetEml(i64 noundef %11, i64 noundef %18)
          to label %20 unwind label %21

20:                                               ; preds = %4
  ret i64 %19

21:                                               ; preds = %4
  %22 = landingpad { ptr, i32 }
          catch ptr null
  %23 = extractvalue { ptr, i32 } %22, 0
  call void @__clang_call_terminate(ptr %23) #8
  unreachable
}

; Function Attrs: mustprogress nounwind uwtable
define linkonce_odr noundef i64 @_ZNK3gmx7extentsIJLl3ELl3EEE6extentEm(ptr noundef nonnull align 1 dereferenceable(1) %0, i64 noundef %1) #0 comdat align 2 {
  %3 = alloca ptr, align 8
  %4 = alloca i64, align 8
  store ptr %0, ptr %3, align 8
  store i64 %1, ptr %4, align 8
  %5 = load ptr, ptr %3, align 8
  %6 = getelementptr inbounds %"class.gmx::extents", ptr %5, i32 0, i32 0
  %7 = call noundef i64 @_ZN3gmx7extentsIJLl3ELl3EEE4rankEv() #6
  %8 = load i64, ptr %4, align 8
  %9 = sub i64 %7, %8
  %10 = call noundef i64 @_ZNK3gmx6detail15extents_analyseILi2EJLl3ELl3EEE6extentEm(ptr noundef nonnull align 1 dereferenceable(1) %6, i64 noundef %9) #6
  ret i64 %10
}

; Function Attrs: mustprogress nounwind uwtable
define linkonce_odr void @_ZN3gmx12layout_right7mappingINS_7extentsIJLl3ELl3EEEEEC2ERKS3_(ptr noundef nonnull align 1 dereferenceable(1) %0, ptr noundef nonnull align 1 dereferenceable(1) %1) unnamed_addr #0 comdat align 2 {
  %3 = alloca ptr, align 8
  %4 = alloca ptr, align 8
  store ptr %0, ptr %3, align 8
  store ptr %1, ptr %4, align 8
  %5 = load ptr, ptr %3, align 8
  %6 = getelementptr inbounds %"class.gmx::layout_right::mapping", ptr %5, i32 0, i32 0
  %7 = load ptr, ptr %4, align 8
  call void @llvm.memcpy.p0.p0.i64(ptr align 1 %6, ptr align 1 %7, i64 1, i1 false)
  ret void
}

; Function Attrs: mustprogress nounwind uwtable
define linkonce_odr void @_ZN3gmx7extentsIJLl3ELl3EEEC2Ev(ptr noundef nonnull align 1 dereferenceable(1) %0) unnamed_addr #0 comdat align 2 personality ptr @__gxx_personality_v0 {
  %2 = alloca ptr, align 8
  store ptr %0, ptr %2, align 8
  %3 = load ptr, ptr %2, align 8
  %4 = getelementptr inbounds %"class.gmx::extents", ptr %3, i32 0, i32 0
  invoke void @_ZN3gmx6detail15extents_analyseILi2EJLl3ELl3EEEC2Ev(ptr noundef nonnull align 1 dereferenceable(1) %4)
          to label %5 unwind label %6

5:                                                ; preds = %1
  ret void

6:                                                ; preds = %1
  %7 = landingpad { ptr, i32 }
          catch ptr null
  %8 = extractvalue { ptr, i32 } %7, 0
  call void @__clang_call_terminate(ptr %8) #8
  unreachable
}

; Function Attrs: mustprogress nounwind uwtable
define linkonce_odr noundef ptr @_ZNSt14__array_traitsIfLm9EE6_S_ptrERA9_Kf(ptr noundef nonnull align 4 dereferenceable(36) %0) #0 comdat align 2 {
  %2 = alloca ptr, align 8
  store ptr %0, ptr %2, align 8
  %3 = load ptr, ptr %2, align 8
  %4 = getelementptr inbounds [9 x float], ptr %3, i64 0, i64 0
  ret ptr %4
}

; Function Attrs: mustprogress nounwind uwtable
define linkonce_odr noundef i64 @_ZNK3gmx12layout_right7mappingINS_7extentsIJLl3ELl3EEEEE6offsetIJiEEElmllDpT_(ptr noundef nonnull align 1 dereferenceable(1) %0, i64 noundef %1, i64 noundef %2, i64 noundef %3, i32 noundef %4) #0 comdat align 2 {
  %6 = alloca ptr, align 8
  %7 = alloca i64, align 8
  %8 = alloca i64, align 8
  %9 = alloca i64, align 8
  %10 = alloca i32, align 4
  store ptr %0, ptr %6, align 8
  store i64 %1, ptr %7, align 8
  store i64 %2, ptr %8, align 8
  store i64 %3, ptr %9, align 8
  store i32 %4, ptr %10, align 4
  %11 = load ptr, ptr %6, align 8
  %12 = load i64, ptr %7, align 8
  %13 = add i64 %12, 1
  %14 = load i64, ptr %8, align 8
  %15 = getelementptr inbounds %"class.gmx::layout_right::mapping", ptr %11, i32 0, i32 0
  %16 = load i64, ptr %7, align 8
  %17 = call noundef i64 @_ZNK3gmx7extentsIJLl3ELl3EEE6extentEm(ptr noundef nonnull align 1 dereferenceable(1) %15, i64 noundef %16) #6
  %18 = mul nsw i64 %14, %17
  %19 = load i64, ptr %9, align 8
  %20 = add nsw i64 %18, %19
  %21 = load i32, ptr %10, align 4
  %22 = sext i32 %21 to i64
  %23 = call noundef i64 @_ZNK3gmx12layout_right7mappingINS_7extentsIJLl3ELl3EEEEE6offsetIJEEElmllDpT_(ptr noundef nonnull align 1 dereferenceable(1) %11, i64 noundef %13, i64 noundef %20, i64 noundef %22) #6
  ret i64 %23
}

; Function Attrs: mustprogress nounwind uwtable
define linkonce_odr void @_ZN3gmx12basic_mdspanIfNS_7extentsIJLl3ELl3EEEENS_12layout_rightENS_14accessor_basicIfEEEC2IJEEEPfDpT_(ptr noundef nonnull align 8 dereferenceable(16) %0, ptr noundef %1) unnamed_addr #0 comdat align 2 {
  %3 = alloca ptr, align 8
  %4 = alloca ptr, align 8
  %5 = alloca %"class.gmx::extents", align 1
  store ptr %0, ptr %3, align 8
  store ptr %1, ptr %4, align 8
  %6 = load ptr, ptr %3, align 8
  %7 = getelementptr inbounds %"class.gmx::basic_mdspan.2", ptr %6, i32 0, i32 1
  call void @_ZN3gmx7extentsIJLl3ELl3EEEC2Ev(ptr noundef nonnull align 1 dereferenceable(1) %5) #6
  call void @_ZN3gmx12layout_right7mappingINS_7extentsIJLl3ELl3EEEEEC2ERKS3_(ptr noundef nonnull align 1 dereferenceable(1) %7, ptr noundef nonnull align 1 dereferenceable(1) %5) #6
  %8 = getelementptr inbounds %"class.gmx::basic_mdspan.2", ptr %6, i32 0, i32 2
  %9 = load ptr, ptr %4, align 8
  store ptr %9, ptr %8, align 8
  ret void
}

; Function Attrs: mustprogress nounwind willreturn memory(none) uwtable
define linkonce_odr noundef ptr @_ZNSt5arrayIfLm9EE4dataEv(ptr noundef nonnull align 4 dereferenceable(36) %0) #3 comdat align 2 {
  %2 = alloca ptr, align 8
  store ptr %0, ptr %2, align 8
  %3 = load ptr, ptr %2, align 8
  %4 = getelementptr inbounds %"struct.std::array", ptr %3, i32 0, i32 0
  %5 = call noundef ptr @_ZNSt14__array_traitsIfLm9EE6_S_ptrERA9_Kf(ptr noundef nonnull align 4 dereferenceable(36) %4) #6
  ret ptr %5
}

; Function Attrs: mustprogress nounwind uwtable
define linkonce_odr noundef nonnull align 4 dereferenceable(4) ptr @_ZNK3gmx14accessor_basicIKfE6accessEPS1_l(ptr noundef nonnull align 1 dereferenceable(1) %0, ptr noundef %1, i64 noundef %2) #0 comdat align 2 {
  %4 = alloca ptr, align 8
  %5 = alloca ptr, align 8
  %6 = alloca i64, align 8
  store ptr %0, ptr %4, align 8
  store ptr %1, ptr %5, align 8
  store i64 %2, ptr %6, align 8
  %7 = load ptr, ptr %5, align 8
  %8 = load i64, ptr %6, align 8
  %9 = getelementptr inbounds float, ptr %7, i64 %8
  ret ptr %9
}

; Function Attrs: mustprogress nounwind uwtable
define linkonce_odr noundef i64 @_ZNK3gmx12layout_right7mappingINS_7extentsIJLl3ELl3EEEEEclIJiiEEENSt9enable_ifIXeqsZT_clL_ZNS3_4rankEvEEElE4typeEDpT_(ptr noundef nonnull align 1 dereferenceable(1) %0, i32 noundef %1, i32 noundef %2) #0 comdat align 2 {
  %4 = alloca ptr, align 8
  %5 = alloca i32, align 4
  %6 = alloca i32, align 4
  store ptr %0, ptr %4, align 8
  store i32 %1, ptr %5, align 4
  store i32 %2, ptr %6, align 4
  %7 = load ptr, ptr %4, align 8
  %8 = load i32, ptr %5, align 4
  %9 = sext i32 %8 to i64
  %10 = load i32, ptr %6, align 4
  %11 = call noundef i64 @_ZNK3gmx12layout_right7mappingINS_7extentsIJLl3ELl3EEEEE6offsetIJiEEElmllDpT_(ptr noundef nonnull align 1 dereferenceable(1) %7, i64 noundef 0, i64 noundef 0, i64 noundef %9, i32 noundef %10) #6
  ret i64 %11
}

; Function Attrs: mustprogress nounwind uwtable
define linkonce_odr void @_ZN3gmx13MultiDimArrayISt5arrayIfLm9EENS_7extentsIJLl3ELl3EEEENS_12layout_rightEEC2IS2_vEERKS2_(ptr noundef nonnull align 8 dereferenceable(56) %0, ptr noundef nonnull align 4 dereferenceable(36) %1) unnamed_addr #0 comdat align 2 {
  %3 = alloca ptr, align 8
  %4 = alloca ptr, align 8
  store ptr %0, ptr %3, align 8
  store ptr %1, ptr %4, align 8
  %5 = load ptr, ptr %3, align 8
  %6 = getelementptr inbounds %"class.gmx::MultiDimArray", ptr %5, i32 0, i32 0
  %7 = load ptr, ptr %4, align 8
  call void @llvm.memcpy.p0.p0.i64(ptr align 8 %6, ptr align 4 %7, i64 36, i1 false)
  %8 = getelementptr inbounds %"class.gmx::MultiDimArray", ptr %5, i32 0, i32 1
  %9 = getelementptr inbounds %"class.gmx::MultiDimArray", ptr %5, i32 0, i32 0
  %10 = call noundef ptr @_ZNSt5arrayIfLm9EE4dataEv(ptr noundef nonnull align 4 dereferenceable(36) %9) #7
  call void @_ZN3gmx12basic_mdspanIfNS_7extentsIJLl3ELl3EEEENS_12layout_rightENS_14accessor_basicIfEEEC2IJEEEPfDpT_(ptr noundef nonnull align 8 dereferenceable(16) %8, ptr noundef %10) #6
  ret void
}

; Function Attrs: mustprogress nounwind uwtable
define linkonce_odr noundef nonnull align 4 dereferenceable(4) ptr @_ZNK3gmx12basic_mdspanIKfNS_7extentsIJLl3ELl3EEEENS_12layout_rightENS_14accessor_basicIS1_EEEclIJiiEEENSt9enable_ifIXeqsZT_clL_ZNS3_4rankEvEEERS1_E4typeEDpT_(ptr noundef nonnull align 8 dereferenceable(16) %0, i32 noundef %1, i32 noundef %2) #0 comdat align 2 {
  %4 = alloca ptr, align 8
  %5 = alloca i32, align 4
  %6 = alloca i32, align 4
  store ptr %0, ptr %4, align 8
  store i32 %1, ptr %5, align 4
  store i32 %2, ptr %6, align 4
  %7 = load ptr, ptr %4, align 8
  %8 = getelementptr inbounds %"class.gmx::basic_mdspan", ptr %7, i32 0, i32 0
  %9 = getelementptr inbounds %"class.gmx::basic_mdspan", ptr %7, i32 0, i32 2
  %10 = load ptr, ptr %9, align 8
  %11 = getelementptr inbounds %"class.gmx::basic_mdspan", ptr %7, i32 0, i32 1
  %12 = load i32, ptr %5, align 4
  %13 = load i32, ptr %6, align 4
  %14 = call noundef i64 @_ZNK3gmx12layout_right7mappingINS_7extentsIJLl3ELl3EEEEEclIJiiEEENSt9enable_ifIXeqsZT_clL_ZNS3_4rankEvEEElE4typeEDpT_(ptr noundef nonnull align 1 dereferenceable(1) %11, i32 noundef %12, i32 noundef %13) #6
  %15 = call noundef nonnull align 4 dereferenceable(4) ptr @_ZNK3gmx14accessor_basicIKfE6accessEPS1_l(ptr noundef nonnull align 1 dereferenceable(1) %8, ptr noundef %10, i64 noundef %14) #6
  ret ptr %15
}

; Function Attrs: mustprogress nounwind uwtable
define void @_ZN3gmx9transposeENS_12basic_mdspanIKfNS_7extentsIJLl3ELl3EEEENS_12layout_rightENS_14accessor_basicIS1_EEEE(ptr dead_on_unwind noalias writable sret(%"class.gmx::MultiDimArray") align 8 %0, ptr %1) #0 {
  %3 = alloca ptr, align 8
  %4 = alloca %"class.gmx::basic_mdspan", align 8
  %5 = alloca %"struct.std::array", align 4
  store ptr %0, ptr %3, align 8
  %6 = getelementptr inbounds i8, ptr %4, i64 8
  store ptr %1, ptr %6, align 8
  %7 = getelementptr inbounds %"struct.std::array", ptr %5, i32 0, i32 0
  %8 = getelementptr inbounds [9 x float], ptr %7, i64 0, i64 0
  %9 = call noundef nonnull align 4 dereferenceable(4) ptr @_ZNK3gmx12basic_mdspanIKfNS_7extentsIJLl3ELl3EEEENS_12layout_rightENS_14accessor_basicIS1_EEEclIJiiEEENSt9enable_ifIXeqsZT_clL_ZNS3_4rankEvEEERS1_E4typeEDpT_(ptr noundef nonnull align 8 dereferenceable(16) %4, i32 noundef 0, i32 noundef 0) #6
  %10 = load float, ptr %9, align 4
  store float %10, ptr %8, align 4
  %11 = getelementptr inbounds float, ptr %8, i64 1
  %12 = call noundef nonnull align 4 dereferenceable(4) ptr @_ZNK3gmx12basic_mdspanIKfNS_7extentsIJLl3ELl3EEEENS_12layout_rightENS_14accessor_basicIS1_EEEclIJiiEEENSt9enable_ifIXeqsZT_clL_ZNS3_4rankEvEEERS1_E4typeEDpT_(ptr noundef nonnull align 8 dereferenceable(16) %4, i32 noundef 1, i32 noundef 0) #6
  %13 = load float, ptr %12, align 4
  store float %13, ptr %11, align 4
  %14 = getelementptr inbounds float, ptr %11, i64 1
  %15 = call noundef nonnull align 4 dereferenceable(4) ptr @_ZNK3gmx12basic_mdspanIKfNS_7extentsIJLl3ELl3EEEENS_12layout_rightENS_14accessor_basicIS1_EEEclIJiiEEENSt9enable_ifIXeqsZT_clL_ZNS3_4rankEvEEERS1_E4typeEDpT_(ptr noundef nonnull align 8 dereferenceable(16) %4, i32 noundef 2, i32 noundef 0) #6
  %16 = load float, ptr %15, align 4
  store float %16, ptr %14, align 4
  %17 = getelementptr inbounds float, ptr %14, i64 1
  %18 = call noundef nonnull align 4 dereferenceable(4) ptr @_ZNK3gmx12basic_mdspanIKfNS_7extentsIJLl3ELl3EEEENS_12layout_rightENS_14accessor_basicIS1_EEEclIJiiEEENSt9enable_ifIXeqsZT_clL_ZNS3_4rankEvEEERS1_E4typeEDpT_(ptr noundef nonnull align 8 dereferenceable(16) %4, i32 noundef 0, i32 noundef 1) #6
  %19 = load float, ptr %18, align 4
  store float %19, ptr %17, align 4
  %20 = getelementptr inbounds float, ptr %17, i64 1
  %21 = call noundef nonnull align 4 dereferenceable(4) ptr @_ZNK3gmx12basic_mdspanIKfNS_7extentsIJLl3ELl3EEEENS_12layout_rightENS_14accessor_basicIS1_EEEclIJiiEEENSt9enable_ifIXeqsZT_clL_ZNS3_4rankEvEEERS1_E4typeEDpT_(ptr noundef nonnull align 8 dereferenceable(16) %4, i32 noundef 1, i32 noundef 1) #6
  %22 = load float, ptr %21, align 4
  store float %22, ptr %20, align 4
  %23 = getelementptr inbounds float, ptr %20, i64 1
  %24 = call noundef nonnull align 4 dereferenceable(4) ptr @_ZNK3gmx12basic_mdspanIKfNS_7extentsIJLl3ELl3EEEENS_12layout_rightENS_14accessor_basicIS1_EEEclIJiiEEENSt9enable_ifIXeqsZT_clL_ZNS3_4rankEvEEERS1_E4typeEDpT_(ptr noundef nonnull align 8 dereferenceable(16) %4, i32 noundef 2, i32 noundef 1) #6
  %25 = load float, ptr %24, align 4
  store float %25, ptr %23, align 4
  %26 = getelementptr inbounds float, ptr %23, i64 1
  %27 = call noundef nonnull align 4 dereferenceable(4) ptr @_ZNK3gmx12basic_mdspanIKfNS_7extentsIJLl3ELl3EEEENS_12layout_rightENS_14accessor_basicIS1_EEEclIJiiEEENSt9enable_ifIXeqsZT_clL_ZNS3_4rankEvEEERS1_E4typeEDpT_(ptr noundef nonnull align 8 dereferenceable(16) %4, i32 noundef 0, i32 noundef 2) #6
  %28 = load float, ptr %27, align 4
  store float %28, ptr %26, align 4
  %29 = getelementptr inbounds float, ptr %26, i64 1
  %30 = call noundef nonnull align 4 dereferenceable(4) ptr @_ZNK3gmx12basic_mdspanIKfNS_7extentsIJLl3ELl3EEEENS_12layout_rightENS_14accessor_basicIS1_EEEclIJiiEEENSt9enable_ifIXeqsZT_clL_ZNS3_4rankEvEEERS1_E4typeEDpT_(ptr noundef nonnull align 8 dereferenceable(16) %4, i32 noundef 1, i32 noundef 2) #6
  %31 = load float, ptr %30, align 4
  store float %31, ptr %29, align 4
  %32 = getelementptr inbounds float, ptr %29, i64 1
  %33 = call noundef nonnull align 4 dereferenceable(4) ptr @_ZNK3gmx12basic_mdspanIKfNS_7extentsIJLl3ELl3EEEENS_12layout_rightENS_14accessor_basicIS1_EEEclIJiiEEENSt9enable_ifIXeqsZT_clL_ZNS3_4rankEvEEERS1_E4typeEDpT_(ptr noundef nonnull align 8 dereferenceable(16) %4, i32 noundef 2, i32 noundef 2) #6
  %34 = load float, ptr %33, align 4
  store float %34, ptr %32, align 4
  call void @_ZN3gmx13MultiDimArrayISt5arrayIfLm9EENS_7extentsIJLl3ELl3EEEENS_12layout_rightEEC2IS2_vEERKS2_(ptr noundef nonnull align 8 dereferenceable(56) %0, ptr noundef nonnull align 4 dereferenceable(36) %5) #6
  ret void
}