; Function Attrs: mustprogress nofree norecurse nosync nounwind willreturn memory(argmem: readwrite) uwtable
define void @_ZN3gmx9transposeENS_12basic_mdspanIKfNS_7extentsIJLl3ELl3EEEENS_12layout_rightENS_14accessor_basicIS1_EEEE(ptr dead_on_unwind noalias writable sret(%"class.gmx::MultiDimArray") align 8 %0, ptr nocapture readonly %1) local_unnamed_addr #0 personality ptr @__gxx_personality_v0 {
  %3 = getelementptr i8, ptr %1, i64 32
  %4 = load float, ptr %3, align 4
  %5 = load <8 x float>, ptr %1, align 4
  %6 = shufflevector <8 x float> %5, <8 x float> poison, <8 x i32> <i32 0, i32 3, i32 6, i32 1, i32 4, i32 7, i32 2, i32 5>
  store <8 x float> %6, ptr %0, align 8
  %.sroa.9.0..sroa_idx = getelementptr inbounds i8, ptr %0, i64 32
  store float %4, ptr %.sroa.9.0..sroa_idx, align 8
  %7 = getelementptr inbounds i8, ptr %0, i64 48
  store ptr %0, ptr %7, align 8
  ret void
}